target datalayout = "e-m:e-p270:32:32-p271:32:32-p272:64:64-i64:64-i128:128-f80:128-n8:16:32:64-S128"
target triple = "x86_64-pc-linux-gnu"

@.str = private unnamed_addr constant [26 x i8] c"../openssl/test/pemtest.c\00", align 1
@.str.7 = private unnamed_addr constant [2 x i8] c"b\00", align 1
@test_protected_params.protectedpay = internal global ptr @.str.30, align 8
@.str.31 = private unnamed_addr constant [5 x i8] c"pkey\00", align 1

; Function Attrs: nounwind uwtable
define internal i32 @test_protected_params() #0 {
  %1 = alloca i32, align 4
  %2 = alloca ptr, align 8
  %3 = alloca ptr, align 8
  %4 = alloca i32, align 4
  %5 = alloca i32, align 4
  call void @llvm.lifetime.start.p0(i64 8, ptr %2) #4
  call void @llvm.lifetime.start.p0(i64 8, ptr %3) #4
  store ptr null, ptr %3, align 8, !tbaa !18
  call void @llvm.lifetime.start.p0(i64 4, ptr %4) #4
  store i32 0, ptr %4, align 4, !tbaa !9
  %6 = load ptr, ptr @test_protected_params.protectedpay, align 8, !tbaa !4
  %7 = load ptr, ptr @test_protected_params.protectedpay, align 8, !tbaa !4
  %8 = call i64 @strlen(ptr noundef %7) #5
  %9 = trunc i64 %8 to i32
  %10 = call ptr @BIO_new_mem_buf(ptr noundef %6, i32 noundef %9)
  store ptr %10, ptr %2, align 8, !tbaa !11
  %11 = load ptr, ptr %2, align 8, !tbaa !11
  %12 = call i32 @test_ptr(ptr noundef @.str, i32 noundef 142, ptr noundef @.str.7, ptr noundef %11)
  %13 = icmp ne i32 %12, 0
  br i1 %13, label %15, label %14

14:                                               ; preds = %0
  store i32 0, ptr %1, align 4
  store i32 1, ptr %5, align 4
  br label %28

15:                                               ; preds = %0
  %16 = load ptr, ptr %2, align 8, !tbaa !11
  %17 = call ptr @PEM_read_bio_Parameters(ptr noundef %16, ptr noundef null)
  store ptr %17, ptr %3, align 8, !tbaa !18
  %18 = load ptr, ptr %3, align 8, !tbaa !18
  %19 = call i32 @test_ptr_null(ptr noundef @.str, i32 noundef 147, ptr noundef @.str.31, ptr noundef %18)
  %20 = icmp ne i32 %19, 0
  br i1 %20, label %22, label %21

21:                                               ; preds = %15
  br label %23

22:                                               ; preds = %15
  store i32 1, ptr %4, align 4, !tbaa !9
  br label %23

23:                                               ; preds = %22, %21
  %24 = load ptr, ptr %3, align 8, !tbaa !18
  call void @EVP_PKEY_free(ptr noundef %24)
  %25 = load ptr, ptr %2, align 8, !tbaa !11
  %26 = call i32 @BIO_free(ptr noundef %25)
  %27 = load i32, ptr %4, align 4, !tbaa !9
  store i32 %27, ptr %1, align 4
  store i32 1, ptr %5, align 4
  br label %28

28:                                               ; preds = %23, %14
  call void @llvm.lifetime.end.p0(i64 4, ptr %4) #4
  call void @llvm.lifetime.end.p0(i64 8, ptr %3) #4
  call void @llvm.lifetime.end.p0(i64 8, ptr %2) #4
  %29 = load i32, ptr %1, align 4
  ret i32 %29
}