; Function Attrs: nounwind uwtable
define internal range(i32 0, 2) i32 @test_protected_params() #0 {
  %1 = tail call ptr @BIO_new_mem_buf(ptr noundef nonnull @.str.30, i32 noundef 206) #4
  %2 = tail call i32 @test_ptr(ptr noundef nonnull @.str, i32 noundef 142, ptr noundef nonnull @.str.7, ptr noundef %1) #4
  %.not = icmp eq i32 %2, 0
  br i1 %.not, label %7, label %3

3:                                                ; preds = %0
  %4 = tail call ptr @PEM_read_bio_Parameters(ptr noundef %1, ptr noundef null) #4
  %5 = tail call i32 @test_ptr_null(ptr noundef nonnull @.str, i32 noundef 147, ptr noundef nonnull @.str.31, ptr noundef %4) #4
  %.not7 = icmp ne i32 %5, 0
  %spec.select = zext i1 %.not7 to i32
  tail call void @EVP_PKEY_free(ptr noundef %4) #4
  %6 = tail call i32 @BIO_free(ptr noundef %1) #4
  br label %7

7:                                                ; preds = %0, %3
  %.06 = phi i32 [ %spec.select, %3 ], [ 0, %0 ]
  ret i32 %.06
}